; Listing generated by Microsoft (R) Optimizing Compiler Version 16.00.30319.01 

	TITLE	D:\GRAD\EOS - (KB)\EOSKernel32\Architecture dependent\IA32\MemoryMappedIO.c
	.686P
	.XMM
	include listing.inc
	.model	flat

INCLUDELIB MSVCRT
INCLUDELIB OLDNAMES

PUBLIC	_OutPort
; Function compile flags: /Odtpy
; File d:\grad\eos - (kb)\eoskernel32\architecture dependent\ia32\memorymappedio.c
_TEXT	SEGMENT
_PortNo$ = 8						; size = 2
_OutData$ = 12						; size = 1
_OutPort PROC

; 38   : {

  00000	55		 push	 ebp
  00001	8b ec		 mov	 ebp, esp

; 39   : 
; 40   : 	_asm
; 41   : 	{
; 42   : 		mov 	dx, [PortNo]

  00003	66 8b 55 08	 mov	 dx, WORD PTR _PortNo$[ebp]

; 43   : 		mov  al, [OutData]

  00007	8a 45 0c	 mov	 al, BYTE PTR _OutData$[ebp]

; 44   : 		out  dx, al

  0000a	ee		 out	 dx, al

; 45   : 	}
; 46   : 
; 47   : }

  0000b	5d		 pop	 ebp
  0000c	c3		 ret	 0
_OutPort ENDP
_TEXT	ENDS
PUBLIC	_InPort
; Function compile flags: /Odtpy
_TEXT	SEGMENT
_Data$ = -1						; size = 1
_PortNo$ = 8						; size = 2
_InPort	PROC

; 51   : {

  00010	55		 push	 ebp
  00011	8b ec		 mov	 ebp, esp
  00013	51		 push	 ecx

; 52   : 	uint8 Data;
; 53   : 
; 54   : 	_asm
; 55   : 	{
; 56   : 		mov Dx, [PortNo]

  00014	66 8b 55 08	 mov	 dx, WORD PTR _PortNo$[ebp]

; 57   : 		in  Al, Dx

  00018	ec		 in	 al, dx

; 58   : 		mov byte ptr [Data], Al

  00019	88 45 ff	 mov	 BYTE PTR _Data$[ebp], al

; 59   : 	}
; 60   : 
; 61   : 	return Data;

  0001c	8a 45 ff	 mov	 al, BYTE PTR _Data$[ebp]

; 62   : }

  0001f	8b e5		 mov	 esp, ebp
  00021	5d		 pop	 ebp
  00022	c3		 ret	 0
_InPort	ENDP
_TEXT	ENDS
END
